target datalayout = "e-m:e-p270:32:32-p271:32:32-p272:64:64-i64:64-i128:128-f80:128-n8:16:32:64-S128"
target triple = "x86_64-pc-linux-gnu"

%struct.URLContext = type { ptr, ptr, ptr, ptr, i32, i32, i32, i32, %struct.AVIOInterruptCB, i64, ptr, ptr, i32 }
%struct.AVIOInterruptCB = type { ptr, ptr }
%struct.SRTPProtoContext = type { ptr, ptr, ptr, ptr, ptr, ptr, %struct.SRTPContext, %struct.SRTPContext, [8192 x i8] }
%struct.SRTPContext = type { ptr, ptr, i32, i32, [16 x i8], [14 x i8], [16 x i8], [16 x i8], [14 x i8], [14 x i8], [20 x i8], [20 x i8], i32, i32, i32, i32 }

@.str.1 = private unnamed_addr constant [4 x i8] c"rtp\00", align 1
@.str.2 = private unnamed_addr constant [3 x i8] c"%s\00", align 1

; Function Attrs: nounwind uwtable
define internal i32 @srtp_close(ptr noundef %0) #0 {
  %2 = alloca ptr, align 8
  %3 = alloca ptr, align 8
  store ptr %0, ptr %2, align 8, !tbaa !4
  call void @llvm.lifetime.start.p0(i64 8, ptr %3) #4
  %4 = load ptr, ptr %2, align 8, !tbaa !4
  %5 = getelementptr inbounds nuw %struct.URLContext, ptr %4, i32 0, i32 2
  %6 = load ptr, ptr %5, align 8, !tbaa !16
  store ptr %6, ptr %3, align 8, !tbaa !22
  %7 = load ptr, ptr %3, align 8, !tbaa !22
  %8 = getelementptr inbounds nuw %struct.SRTPProtoContext, ptr %7, i32 0, i32 6
  call void @ff_srtp_free(ptr noundef %8)
  %9 = load ptr, ptr %3, align 8, !tbaa !22
  %10 = getelementptr inbounds nuw %struct.SRTPProtoContext, ptr %9, i32 0, i32 7
  call void @ff_srtp_free(ptr noundef %10)
  %11 = load ptr, ptr %3, align 8, !tbaa !22
  %12 = getelementptr inbounds nuw %struct.SRTPProtoContext, ptr %11, i32 0, i32 1
  %13 = call i32 @ffurl_closep(ptr noundef %12)
  call void @llvm.lifetime.end.p0(i64 8, ptr %3) #4
  ret i32 0
}

; Function Attrs: nounwind uwtable
define internal i32 @srtp_open(ptr noundef %0, ptr noundef %1, i32 noundef %2, ptr noundef %3) #0 {
  %5 = alloca i32, align 4
  %6 = alloca ptr, align 8
  %7 = alloca ptr, align 8
  %8 = alloca i32, align 4
  %9 = alloca ptr, align 8
  %10 = alloca ptr, align 8
  %11 = alloca [256 x i8], align 16
  %12 = alloca [1024 x i8], align 16
  %13 = alloca [1024 x i8], align 16
  %14 = alloca i32, align 4
  %15 = alloca i32, align 4
  %16 = alloca i32, align 4
  store ptr %0, ptr %6, align 8, !tbaa !4
  store ptr %1, ptr %7, align 8, !tbaa !9
  store i32 %2, ptr %8, align 4, !tbaa !11
  store ptr %3, ptr %9, align 8, !tbaa !13
  call void @llvm.lifetime.start.p0(i64 8, ptr %10) #4
  %17 = load ptr, ptr %6, align 8, !tbaa !4
  %18 = getelementptr inbounds nuw %struct.URLContext, ptr %17, i32 0, i32 2
  %19 = load ptr, ptr %18, align 8, !tbaa !16
  store ptr %19, ptr %10, align 8, !tbaa !22
  call void @llvm.lifetime.start.p0(i64 256, ptr %11) #4
  call void @llvm.lifetime.start.p0(i64 1024, ptr %12) #4
  call void @llvm.lifetime.start.p0(i64 1024, ptr %13) #4
  call void @llvm.lifetime.start.p0(i64 4, ptr %14) #4
  call void @llvm.lifetime.start.p0(i64 4, ptr %15) #4
  %20 = load ptr, ptr %10, align 8, !tbaa !22
  %21 = getelementptr inbounds nuw %struct.SRTPProtoContext, ptr %20, i32 0, i32 2
  %22 = load ptr, ptr %21, align 8, !tbaa !24
  %23 = icmp ne ptr %22, null
  br i1 %23, label %24, label %42

24:                                               ; preds = %4
  %25 = load ptr, ptr %10, align 8, !tbaa !22
  %26 = getelementptr inbounds nuw %struct.SRTPProtoContext, ptr %25, i32 0, i32 3
  %27 = load ptr, ptr %26, align 8, !tbaa !29
  %28 = icmp ne ptr %27, null
  br i1 %28, label %29, label %42

29:                                               ; preds = %24
  %30 = load ptr, ptr %10, align 8, !tbaa !22
  %31 = getelementptr inbounds nuw %struct.SRTPProtoContext, ptr %30, i32 0, i32 6
  %32 = load ptr, ptr %10, align 8, !tbaa !22
  %33 = getelementptr inbounds nuw %struct.SRTPProtoContext, ptr %32, i32 0, i32 2
  %34 = load ptr, ptr %33, align 8, !tbaa !24
  %35 = load ptr, ptr %10, align 8, !tbaa !22
  %36 = getelementptr inbounds nuw %struct.SRTPProtoContext, ptr %35, i32 0, i32 3
  %37 = load ptr, ptr %36, align 8, !tbaa !29
  %38 = call i32 @ff_srtp_set_crypto(ptr noundef %31, ptr noundef %34, ptr noundef %37)
  store i32 %38, ptr %15, align 4, !tbaa !11
  %39 = icmp slt i32 %38, 0
  br i1 %39, label %40, label %41

40:                                               ; preds = %29
  br label %115

41:                                               ; preds = %29
  br label %42

42:                                               ; preds = %41, %24, %4
  %43 = load ptr, ptr %10, align 8, !tbaa !22
  %44 = getelementptr inbounds nuw %struct.SRTPProtoContext, ptr %43, i32 0, i32 4
  %45 = load ptr, ptr %44, align 8, !tbaa !30
  %46 = icmp ne ptr %45, null
  br i1 %46, label %47, label %65

47:                                               ; preds = %42
  %48 = load ptr, ptr %10, align 8, !tbaa !22
  %49 = getelementptr inbounds nuw %struct.SRTPProtoContext, ptr %48, i32 0, i32 5
  %50 = load ptr, ptr %49, align 8, !tbaa !31
  %51 = icmp ne ptr %50, null
  br i1 %51, label %52, label %65

52:                                               ; preds = %47
  %53 = load ptr, ptr %10, align 8, !tbaa !22
  %54 = getelementptr inbounds nuw %struct.SRTPProtoContext, ptr %53, i32 0, i32 7
  %55 = load ptr, ptr %10, align 8, !tbaa !22
  %56 = getelementptr inbounds nuw %struct.SRTPProtoContext, ptr %55, i32 0, i32 4
  %57 = load ptr, ptr %56, align 8, !tbaa !30
  %58 = load ptr, ptr %10, align 8, !tbaa !22
  %59 = getelementptr inbounds nuw %struct.SRTPProtoContext, ptr %58, i32 0, i32 5
  %60 = load ptr, ptr %59, align 8, !tbaa !31
  %61 = call i32 @ff_srtp_set_crypto(ptr noundef %54, ptr noundef %57, ptr noundef %60)
  store i32 %61, ptr %15, align 4, !tbaa !11
  %62 = icmp slt i32 %61, 0
  br i1 %62, label %63, label %64

63:                                               ; preds = %52
  br label %115

64:                                               ; preds = %52
  br label %65

65:                                               ; preds = %64, %47, %42
  %66 = getelementptr inbounds [256 x i8], ptr %11, i64 0, i64 0
  %67 = getelementptr inbounds [1024 x i8], ptr %13, i64 0, i64 0
  %68 = load ptr, ptr %7, align 8, !tbaa !9
  call void @av_url_split(ptr noundef null, i32 noundef 0, ptr noundef null, i32 noundef 0, ptr noundef %66, i32 noundef 256, ptr noundef %14, ptr noundef %67, i32 noundef 1024, ptr noundef %68)
  %69 = getelementptr inbounds [1024 x i8], ptr %12, i64 0, i64 0
  %70 = getelementptr inbounds [256 x i8], ptr %11, i64 0, i64 0
  %71 = load i32, ptr %14, align 4, !tbaa !11
  %72 = getelementptr inbounds [1024 x i8], ptr %13, i64 0, i64 0
  %73 = call i32 (ptr, i32, ptr, ptr, ptr, i32, ptr, ...) @ff_url_join(ptr noundef %69, i32 noundef 1024, ptr noundef @.str.1, ptr noundef null, ptr noundef %70, i32 noundef %71, ptr noundef @.str.2, ptr noundef %72)
  %74 = load ptr, ptr %10, align 8, !tbaa !22
  %75 = getelementptr inbounds nuw %struct.SRTPProtoContext, ptr %74, i32 0, i32 1
  %76 = getelementptr inbounds [1024 x i8], ptr %12, i64 0, i64 0
  %77 = load i32, ptr %8, align 4, !tbaa !11
  %78 = load ptr, ptr %6, align 8, !tbaa !4
  %79 = getelementptr inbounds nuw %struct.URLContext, ptr %78, i32 0, i32 8
  %80 = load ptr, ptr %9, align 8, !tbaa !13
  %81 = load ptr, ptr %6, align 8, !tbaa !4
  %82 = getelementptr inbounds nuw %struct.URLContext, ptr %81, i32 0, i32 10
  %83 = load ptr, ptr %82, align 8, !tbaa !32
  %84 = load ptr, ptr %6, align 8, !tbaa !4
  %85 = getelementptr inbounds nuw %struct.URLContext, ptr %84, i32 0, i32 11
  %86 = load ptr, ptr %85, align 8, !tbaa !33
  %87 = load ptr, ptr %6, align 8, !tbaa !4
  %88 = call i32 @ffurl_open_whitelist(ptr noundef %75, ptr noundef %76, i32 noundef %77, ptr noundef %79, ptr noundef %80, ptr noundef %83, ptr noundef %86, ptr noundef %87)
  store i32 %88, ptr %15, align 4, !tbaa !11
  %89 = icmp slt i32 %88, 0
  br i1 %89, label %90, label %91

90:                                               ; preds = %65
  br label %115

91:                                               ; preds = %65
  %92 = load ptr, ptr %10, align 8, !tbaa !22
  %93 = getelementptr inbounds nuw %struct.SRTPProtoContext, ptr %92, i32 0, i32 1
  %94 = load ptr, ptr %93, align 8, !tbaa !34
  %95 = getelementptr inbounds nuw %struct.URLContext, ptr %94, i32 0, i32 5
  %96 = load i32, ptr %95, align 4, !tbaa !35
  %97 = sext i32 %96 to i64
  %98 = icmp ugt i64 %97, 8192
  br i1 %98, label %99, label %100

99:                                               ; preds = %91
  br label %107

100:                                              ; preds = %91
  %101 = load ptr, ptr %10, align 8, !tbaa !22
  %102 = getelementptr inbounds nuw %struct.SRTPProtoContext, ptr %101, i32 0, i32 1
  %103 = load ptr, ptr %102, align 8, !tbaa !34
  %104 = getelementptr inbounds nuw %struct.URLContext, ptr %103, i32 0, i32 5
  %105 = load i32, ptr %104, align 4, !tbaa !35
  %106 = sext i32 %105 to i64
  br label %107

107:                                              ; preds = %100, %99
  %108 = phi i64 [ 8192, %99 ], [ %106, %100 ]
  %109 = sub i64 %108, 14
  %110 = trunc i64 %109 to i32
  %111 = load ptr, ptr %6, align 8, !tbaa !4
  %112 = getelementptr inbounds nuw %struct.URLContext, ptr %111, i32 0, i32 5
  store i32 %110, ptr %112, align 4, !tbaa !35
  %113 = load ptr, ptr %6, align 8, !tbaa !4
  %114 = getelementptr inbounds nuw %struct.URLContext, ptr %113, i32 0, i32 6
  store i32 1, ptr %114, align 8, !tbaa !36
  store i32 0, ptr %5, align 4
  store i32 1, ptr %16, align 4
  br label %119

115:                                              ; preds = %90, %63, %40
  %116 = load ptr, ptr %6, align 8, !tbaa !4
  %117 = call i32 @srtp_close(ptr noundef %116)
  %118 = load i32, ptr %15, align 4, !tbaa !11
  store i32 %118, ptr %5, align 4
  store i32 1, ptr %16, align 4
  br label %119

119:                                              ; preds = %115, %107
  call void @llvm.lifetime.end.p0(i64 4, ptr %15) #4
  call void @llvm.lifetime.end.p0(i64 4, ptr %14) #4
  call void @llvm.lifetime.end.p0(i64 1024, ptr %13) #4
  call void @llvm.lifetime.end.p0(i64 1024, ptr %12) #4
  call void @llvm.lifetime.end.p0(i64 256, ptr %11) #4
  call void @llvm.lifetime.end.p0(i64 8, ptr %10) #4
  %120 = load i32, ptr %5, align 4
  ret i32 %120
}