; Function Attrs: nounwind uwtable
define internal range(i32 -2147483648, 1) i32 @srtp_open(ptr noundef %0, ptr noundef %1, i32 noundef %2, ptr noundef %3) #0 {
  %5 = alloca [256 x i8], align 16
  %6 = alloca [1024 x i8], align 16
  %7 = alloca [1024 x i8], align 16
  %8 = alloca i32, align 4
  %9 = getelementptr inbounds nuw i8, ptr %0, i64 16
  %10 = load ptr, ptr %9, align 8, !tbaa !4
  call void @llvm.lifetime.start.p0(i64 256, ptr nonnull %5) #4
  call void @llvm.lifetime.start.p0(i64 1024, ptr nonnull %6) #4
  call void @llvm.lifetime.start.p0(i64 1024, ptr nonnull %7) #4
  call void @llvm.lifetime.start.p0(i64 4, ptr nonnull %8) #4
  %11 = getelementptr inbounds nuw i8, ptr %10, i64 16
  %12 = load ptr, ptr %11, align 8, !tbaa !15
  %.not = icmp eq ptr %12, null
  br i1 %.not, label %20, label %13

13:                                               ; preds = %4
  %14 = getelementptr inbounds nuw i8, ptr %10, i64 24
  %15 = load ptr, ptr %14, align 8, !tbaa !21
  %.not34 = icmp eq ptr %15, null
  br i1 %.not34, label %20, label %16

16:                                               ; preds = %13
  %17 = getelementptr inbounds nuw i8, ptr %10, i64 48
  %18 = tail call i32 @ff_srtp_set_crypto(ptr noundef nonnull %17, ptr noundef nonnull %12, ptr noundef nonnull %15) #4
  %19 = icmp slt i32 %18, 0
  br i1 %19, label %48, label %20

20:                                               ; preds = %16, %13, %4
  %21 = getelementptr inbounds nuw i8, ptr %10, i64 32
  %22 = load ptr, ptr %21, align 8, !tbaa !22
  %.not35 = icmp eq ptr %22, null
  br i1 %.not35, label %30, label %23

23:                                               ; preds = %20
  %24 = getelementptr inbounds nuw i8, ptr %10, i64 40
  %25 = load ptr, ptr %24, align 8, !tbaa !23
  %.not36 = icmp eq ptr %25, null
  br i1 %.not36, label %30, label %26

26:                                               ; preds = %23
  %27 = getelementptr inbounds nuw i8, ptr %10, i64 224
  %28 = tail call i32 @ff_srtp_set_crypto(ptr noundef nonnull %27, ptr noundef nonnull %22, ptr noundef nonnull %25) #4
  %29 = icmp slt i32 %28, 0
  br i1 %29, label %48, label %30

30:                                               ; preds = %26, %23, %20
  call void @av_url_split(ptr noundef null, i32 noundef 0, ptr noundef null, i32 noundef 0, ptr noundef nonnull %5, i32 noundef 256, ptr noundef nonnull %8, ptr noundef nonnull %7, i32 noundef 1024, ptr noundef %1) #4
  %31 = load i32, ptr %8, align 4, !tbaa !24
  %32 = call i32 (ptr, i32, ptr, ptr, ptr, i32, ptr, ...) @ff_url_join(ptr noundef nonnull %6, i32 noundef 1024, ptr noundef nonnull @.str.1, ptr noundef null, ptr noundef nonnull %5, i32 noundef %31, ptr noundef nonnull @.str.2, ptr noundef nonnull %7) #4
  %33 = getelementptr inbounds nuw i8, ptr %10, i64 8
  %34 = getelementptr inbounds nuw i8, ptr %0, i64 48
  %35 = getelementptr inbounds nuw i8, ptr %0, i64 72
  %36 = load ptr, ptr %35, align 8, !tbaa !25
  %37 = getelementptr inbounds nuw i8, ptr %0, i64 80
  %38 = load ptr, ptr %37, align 8, !tbaa !26
  %39 = call i32 @ffurl_open_whitelist(ptr noundef nonnull %33, ptr noundef nonnull %6, i32 noundef %2, ptr noundef nonnull %34, ptr noundef %3, ptr noundef %36, ptr noundef %38, ptr noundef nonnull %0) #4
  %40 = icmp slt i32 %39, 0
  br i1 %40, label %48, label %41

41:                                               ; preds = %30
  %42 = load ptr, ptr %33, align 8, !tbaa !27
  %43 = getelementptr inbounds nuw i8, ptr %42, i64 36
  %44 = load i32, ptr %43, align 4, !tbaa !28
  %45 = call i32 @llvm.umin.i32(i32 %44, i32 8192)
  %spec.select = add nsw i32 %45, -14
  %46 = getelementptr inbounds nuw i8, ptr %0, i64 36
  store i32 %spec.select, ptr %46, align 4, !tbaa !28
  %47 = getelementptr inbounds nuw i8, ptr %0, i64 40
  store i32 1, ptr %47, align 8, !tbaa !29
  br label %54

48:                                               ; preds = %30, %26, %16
  %.0 = phi i32 [ %18, %16 ], [ %28, %26 ], [ %39, %30 ]
  %49 = load ptr, ptr %9, align 8, !tbaa !4
  %50 = getelementptr inbounds nuw i8, ptr %49, i64 48
  call void @ff_srtp_free(ptr noundef nonnull %50) #4
  %51 = getelementptr inbounds nuw i8, ptr %49, i64 224
  call void @ff_srtp_free(ptr noundef nonnull %51) #4
  %52 = getelementptr inbounds nuw i8, ptr %49, i64 8
  %53 = call i32 @ffurl_closep(ptr noundef nonnull %52) #4
  br label %54

54:                                               ; preds = %48, %41
  %.025 = phi i32 [ %.0, %48 ], [ 0, %41 ]
  call void @llvm.lifetime.end.p0(i64 4, ptr nonnull %8) #4
  call void @llvm.lifetime.end.p0(i64 1024, ptr nonnull %7) #4
  call void @llvm.lifetime.end.p0(i64 1024, ptr nonnull %6) #4
  call void @llvm.lifetime.end.p0(i64 256, ptr nonnull %5) #4
  ret i32 %.025
}